; ModuleID = '44/60.c'
source_filename = "44/60.c"
target datalayout = "e-m:e-p270:32:32-p271:32:32-p272:64:64-i64:64-f80:128-n8:16:32:64-S128"
target triple = "x86_64-pc-linux-gnu"

@.str = private unnamed_addr constant [3 x i8] c"%d\00", align 1
@.str.1 = private unnamed_addr constant [4 x i8] c"%d\0A\00", align 1

; Function Attrs: noinline nounwind uwtable
define dso_local i32 @main() #0 {
  %1 = alloca i32, align 4
  %2 = alloca i32, align 4
  %3 = alloca i32, align 4
  %4 = alloca i32, align 4
  %5 = alloca i32, align 4
  store i32 0, i32* %1, align 4
  store i32 1, i32* %2, align 4
  br label %6

6:                                                ; preds = %24, %0
  %7 = load i32, i32* %2, align 4
  %8 = icmp sle i32 %7, 6
  br i1 %8, label %9, label %27

9:                                                ; preds = %6
  %10 = call i32 (i8*, ...) @__isoc99_scanf(i8* getelementptr inbounds ([3 x i8], [3 x i8]* @.str, i64 0, i64 0), i32* %3)
  %11 = load i32, i32* %3, align 4
  %12 = icmp sgt i32 %11, 0
  br i1 %12, label %13, label %14

13:                                               ; preds = %9
  store i32 1, i32* %4, align 4
  br label %17

14:                                               ; preds = %9
  store i32 -1, i32* %4, align 4
  %15 = load i32, i32* %3, align 4
  %16 = sub nsw i32 0, %15
  store i32 %16, i32* %3, align 4
  br label %17

17:                                               ; preds = %14, %13
  %18 = load i32, i32* %3, align 4
  %19 = call i32 @f(i32 %18)
  store i32 %19, i32* %5, align 4
  %20 = load i32, i32* %4, align 4
  %21 = load i32, i32* %5, align 4
  %22 = mul nsw i32 %20, %21
  %23 = call i32 (i8*, ...) @printf(i8* getelementptr inbounds ([4 x i8], [4 x i8]* @.str.1, i64 0, i64 0), i32 %22)
  br label %24

24:                                               ; preds = %17
  %25 = load i32, i32* %2, align 4
  %26 = add nsw i32 %25, 1
  store i32 %26, i32* %2, align 4
  br label %6

27:                                               ; preds = %6
  %28 = load i32, i32* %1, align 4
  ret i32 %28
}

declare dso_local i32 @__isoc99_scanf(i8*, ...) #1

; Function Attrs: noinline nounwind uwtable
define dso_local i32 @f(i32 %0) #0 {
  %2 = alloca i32, align 4
  %3 = alloca i32, align 4
  %4 = alloca i32, align 4
  store i32 %0, i32* %2, align 4
  %5 = load i32, i32* %2, align 4
  store i32 %5, i32* %3, align 4
  store i32 0, i32* %4, align 4
  br label %6

6:                                                ; preds = %9, %1
  %7 = load i32, i32* %3, align 4
  %8 = icmp sgt i32 %7, 0
  br i1 %8, label %9, label %17

9:                                                ; preds = %6
  %10 = load i32, i32* %4, align 4
  %11 = mul nsw i32 %10, 10
  %12 = load i32, i32* %3, align 4
  %13 = srem i32 %12, 10
  %14 = add nsw i32 %11, %13
  store i32 %14, i32* %4, align 4
  %15 = load i32, i32* %3, align 4
  %16 = sdiv i32 %15, 10
  store i32 %16, i32* %3, align 4
  br label %6

17:                                               ; preds = %6
  %18 = load i32, i32* %4, align 4
  ret i32 %18
}

declare dso_local i32 @printf(i8*, ...) #1


!llvm.module.flags = !{!0}
!llvm.ident = !{!1}

!0 = !{i32 1, !"wchar_size", i32 4}
!1 = !{!"clang version 10.0.0-4ubuntu1 "}
